#include <math.h>
#include <stdio.h>
#include <stdlib.h>
#include <string.h>

int main()
{
int r,c,a[9][9],i,j,m,cc,k,t,p=0;
scanf("%d,%d",&r,&c);
for(i=1;i<=r;i++)
{
      for(j=1;j<=c;j++)
	  {
      scanf("%d",&a[i][j]);
	  }
}


for(i=1;i<=r;i++)
{
m=0;
      for(j=1;j<=c;j++)
	  {
           if(a[i][j]>=m)
		   { 
           m=a[i][j];
           cc=j;
		   }
	  }

t=0;
      for(k=1;k<=r;k++)
	  {
           if(m>a[k][cc]) 
		   {
           t=1;
           break;
		   }
	  }
if(t==0) 
{
printf("%d+%d\n",i-1,cc-1);
p++;
}
}

if(p==0) printf("No\n");
return 0;
}
