; ModuleID = '35/690.c'
source_filename = "35/690.c"
target datalayout = "e-m:e-p270:32:32-p271:32:32-p272:64:64-i64:64-f80:128-n8:16:32:64-S128"
target triple = "x86_64-pc-linux-gnu"

@.str = private unnamed_addr constant [6 x i8] c"%d,%d\00", align 1
@.str.1 = private unnamed_addr constant [3 x i8] c"%d\00", align 1
@.str.2 = private unnamed_addr constant [7 x i8] c"%d+%d\0A\00", align 1
@.str.3 = private unnamed_addr constant [4 x i8] c"No\0A\00", align 1

; Function Attrs: noinline nounwind uwtable
define dso_local i32 @main() #0 {
  %1 = alloca i32, align 4
  %2 = alloca i32, align 4
  %3 = alloca i32, align 4
  %4 = alloca [9 x [9 x i32]], align 16
  %5 = alloca i32, align 4
  %6 = alloca i32, align 4
  %7 = alloca i32, align 4
  %8 = alloca i32, align 4
  %9 = alloca i32, align 4
  %10 = alloca i32, align 4
  %11 = alloca i32, align 4
  store i32 0, i32* %1, align 4
  store i32 0, i32* %11, align 4
  %12 = call i32 (i8*, ...) @__isoc99_scanf(i8* getelementptr inbounds ([6 x i8], [6 x i8]* @.str, i64 0, i64 0), i32* %2, i32* %3)
  store i32 1, i32* %5, align 4
  br label %13

13:                                               ; preds = %34, %0
  %14 = load i32, i32* %5, align 4
  %15 = load i32, i32* %2, align 4
  %16 = icmp sle i32 %14, %15
  br i1 %16, label %17, label %37

17:                                               ; preds = %13
  store i32 1, i32* %6, align 4
  br label %18

18:                                               ; preds = %30, %17
  %19 = load i32, i32* %6, align 4
  %20 = load i32, i32* %3, align 4
  %21 = icmp sle i32 %19, %20
  br i1 %21, label %22, label %33

22:                                               ; preds = %18
  %23 = load i32, i32* %5, align 4
  %24 = sext i32 %23 to i64
  %25 = getelementptr inbounds [9 x [9 x i32]], [9 x [9 x i32]]* %4, i64 0, i64 %24
  %26 = load i32, i32* %6, align 4
  %27 = sext i32 %26 to i64
  %28 = getelementptr inbounds [9 x i32], [9 x i32]* %25, i64 0, i64 %27
  %29 = call i32 (i8*, ...) @__isoc99_scanf(i8* getelementptr inbounds ([3 x i8], [3 x i8]* @.str.1, i64 0, i64 0), i32* %28)
  br label %30

30:                                               ; preds = %22
  %31 = load i32, i32* %6, align 4
  %32 = add nsw i32 %31, 1
  store i32 %32, i32* %6, align 4
  br label %18

33:                                               ; preds = %18
  br label %34

34:                                               ; preds = %33
  %35 = load i32, i32* %5, align 4
  %36 = add nsw i32 %35, 1
  store i32 %36, i32* %5, align 4
  br label %13

37:                                               ; preds = %13
  store i32 1, i32* %5, align 4
  br label %38

38:                                               ; preds = %102, %37
  %39 = load i32, i32* %5, align 4
  %40 = load i32, i32* %2, align 4
  %41 = icmp sle i32 %39, %40
  br i1 %41, label %42, label %105

42:                                               ; preds = %38
  store i32 0, i32* %7, align 4
  store i32 1, i32* %6, align 4
  br label %43

43:                                               ; preds = %67, %42
  %44 = load i32, i32* %6, align 4
  %45 = load i32, i32* %3, align 4
  %46 = icmp sle i32 %44, %45
  br i1 %46, label %47, label %70

47:                                               ; preds = %43
  %48 = load i32, i32* %5, align 4
  %49 = sext i32 %48 to i64
  %50 = getelementptr inbounds [9 x [9 x i32]], [9 x [9 x i32]]* %4, i64 0, i64 %49
  %51 = load i32, i32* %6, align 4
  %52 = sext i32 %51 to i64
  %53 = getelementptr inbounds [9 x i32], [9 x i32]* %50, i64 0, i64 %52
  %54 = load i32, i32* %53, align 4
  %55 = load i32, i32* %7, align 4
  %56 = icmp sge i32 %54, %55
  br i1 %56, label %57, label %66

57:                                               ; preds = %47
  %58 = load i32, i32* %5, align 4
  %59 = sext i32 %58 to i64
  %60 = getelementptr inbounds [9 x [9 x i32]], [9 x [9 x i32]]* %4, i64 0, i64 %59
  %61 = load i32, i32* %6, align 4
  %62 = sext i32 %61 to i64
  %63 = getelementptr inbounds [9 x i32], [9 x i32]* %60, i64 0, i64 %62
  %64 = load i32, i32* %63, align 4
  store i32 %64, i32* %7, align 4
  %65 = load i32, i32* %6, align 4
  store i32 %65, i32* %8, align 4
  br label %66

66:                                               ; preds = %57, %47
  br label %67

67:                                               ; preds = %66
  %68 = load i32, i32* %6, align 4
  %69 = add nsw i32 %68, 1
  store i32 %69, i32* %6, align 4
  br label %43

70:                                               ; preds = %43
  store i32 0, i32* %10, align 4
  store i32 1, i32* %9, align 4
  br label %71

71:                                               ; preds = %87, %70
  %72 = load i32, i32* %9, align 4
  %73 = load i32, i32* %2, align 4
  %74 = icmp sle i32 %72, %73
  br i1 %74, label %75, label %90

75:                                               ; preds = %71
  %76 = load i32, i32* %7, align 4
  %77 = load i32, i32* %9, align 4
  %78 = sext i32 %77 to i64
  %79 = getelementptr inbounds [9 x [9 x i32]], [9 x [9 x i32]]* %4, i64 0, i64 %78
  %80 = load i32, i32* %8, align 4
  %81 = sext i32 %80 to i64
  %82 = getelementptr inbounds [9 x i32], [9 x i32]* %79, i64 0, i64 %81
  %83 = load i32, i32* %82, align 4
  %84 = icmp sgt i32 %76, %83
  br i1 %84, label %85, label %86

85:                                               ; preds = %75
  store i32 1, i32* %10, align 4
  br label %90

86:                                               ; preds = %75
  br label %87

87:                                               ; preds = %86
  %88 = load i32, i32* %9, align 4
  %89 = add nsw i32 %88, 1
  store i32 %89, i32* %9, align 4
  br label %71

90:                                               ; preds = %85, %71
  %91 = load i32, i32* %10, align 4
  %92 = icmp eq i32 %91, 0
  br i1 %92, label %93, label %101

93:                                               ; preds = %90
  %94 = load i32, i32* %5, align 4
  %95 = sub nsw i32 %94, 1
  %96 = load i32, i32* %8, align 4
  %97 = sub nsw i32 %96, 1
  %98 = call i32 (i8*, ...) @printf(i8* getelementptr inbounds ([7 x i8], [7 x i8]* @.str.2, i64 0, i64 0), i32 %95, i32 %97)
  %99 = load i32, i32* %11, align 4
  %100 = add nsw i32 %99, 1
  store i32 %100, i32* %11, align 4
  br label %101

101:                                              ; preds = %93, %90
  br label %102

102:                                              ; preds = %101
  %103 = load i32, i32* %5, align 4
  %104 = add nsw i32 %103, 1
  store i32 %104, i32* %5, align 4
  br label %38

105:                                              ; preds = %38
  %106 = load i32, i32* %11, align 4
  %107 = icmp eq i32 %106, 0
  br i1 %107, label %108, label %110

108:                                              ; preds = %105
  %109 = call i32 (i8*, ...) @printf(i8* getelementptr inbounds ([4 x i8], [4 x i8]* @.str.3, i64 0, i64 0))
  br label %110

110:                                              ; preds = %108, %105
  ret i32 0
}

declare dso_local i32 @__isoc99_scanf(i8*, ...) #1

declare dso_local i32 @printf(i8*, ...) #1


!llvm.module.flags = !{!0}
!llvm.ident = !{!1}

!0 = !{i32 1, !"wchar_size", i32 4}
!1 = !{!"clang version 10.0.0-4ubuntu1 "}
